target datalayout = "e-m:e-p270:32:32-p271:32:32-p272:64:64-i64:64-i128:128-f80:128-n8:16:32:64-S128"
target triple = "x86_64-pc-linux-gnu"

%struct.SN_env = type { ptr, i32, i32, i32, i32, i32, ptr, ptr }

@s_88 = internal constant [4 x i8] c"\CE\BF\CE\BD", align 1
@s_89 = internal constant [10 x i8] c"\CE\BF\CE\BC\CE\B1\CF\83\CF\84", align 1

; Function Attrs: nounwind uwtable
define internal i32 @r_step5e(ptr noundef %0) #0 {
  %2 = alloca i32, align 4
  %3 = alloca ptr, align 8
  %4 = alloca i32, align 4
  %5 = alloca i32, align 4
  %6 = alloca i32, align 4
  store ptr %0, ptr %3, align 8
  %7 = load ptr, ptr %3, align 8
  %8 = getelementptr inbounds nuw %struct.SN_env, ptr %7, i32 0, i32 1
  %9 = load i32, ptr %8, align 8
  %10 = load ptr, ptr %3, align 8
  %11 = getelementptr inbounds nuw %struct.SN_env, ptr %10, i32 0, i32 5
  store i32 %9, ptr %11, align 8
  %12 = load ptr, ptr %3, align 8
  %13 = getelementptr inbounds nuw %struct.SN_env, ptr %12, i32 0, i32 1
  %14 = load i32, ptr %13, align 8
  %15 = sub i32 %14, 11
  %16 = load ptr, ptr %3, align 8
  %17 = getelementptr inbounds nuw %struct.SN_env, ptr %16, i32 0, i32 3
  %18 = load i32, ptr %17, align 8
  %19 = icmp sle i32 %15, %18
  br i1 %19, label %33, label %20

20:                                               ; preds = %1
  %21 = load ptr, ptr %3, align 8
  %22 = getelementptr inbounds nuw %struct.SN_env, ptr %21, i32 0, i32 0
  %23 = load ptr, ptr %22, align 8
  %24 = load ptr, ptr %3, align 8
  %25 = getelementptr inbounds nuw %struct.SN_env, ptr %24, i32 0, i32 1
  %26 = load i32, ptr %25, align 8
  %27 = sub i32 %26, 1
  %28 = sext i32 %27 to i64
  %29 = getelementptr inbounds i8, ptr %23, i64 %28
  %30 = load i8, ptr %29, align 1
  %31 = zext i8 %30 to i32
  %32 = icmp ne i32 %31, 181
  br i1 %32, label %33, label %34

33:                                               ; preds = %20, %1
  store i32 0, ptr %2, align 4
  br label %93

34:                                               ; preds = %20
  %35 = load ptr, ptr %3, align 8
  %36 = call i32 @find_among_b(ptr noundef %35, ptr noundef @a_44, i32 noundef 2)
  %37 = icmp ne i32 %36, 0
  br i1 %37, label %39, label %38

38:                                               ; preds = %34
  store i32 0, ptr %2, align 4
  br label %93

39:                                               ; preds = %34
  %40 = load ptr, ptr %3, align 8
  %41 = getelementptr inbounds nuw %struct.SN_env, ptr %40, i32 0, i32 1
  %42 = load i32, ptr %41, align 8
  %43 = load ptr, ptr %3, align 8
  %44 = getelementptr inbounds nuw %struct.SN_env, ptr %43, i32 0, i32 4
  store i32 %42, ptr %44, align 4
  call void @llvm.lifetime.start.p0(i64 4, ptr %4) #3
  %45 = load ptr, ptr %3, align 8
  %46 = call i32 @slice_del(ptr noundef %45)
  store i32 %46, ptr %4, align 4
  %47 = load i32, ptr %4, align 4
  %48 = icmp slt i32 %47, 0
  br i1 %48, label %49, label %51

49:                                               ; preds = %39
  %50 = load i32, ptr %4, align 4
  store i32 %50, ptr %2, align 4
  store i32 1, ptr %5, align 4
  br label %52

51:                                               ; preds = %39
  store i32 0, ptr %5, align 4
  br label %52

52:                                               ; preds = %51, %49
  call void @llvm.lifetime.end.p0(i64 4, ptr %4) #3
  %53 = load i32, ptr %5, align 4
  switch i32 %53, label %95 [
    i32 0, label %54
    i32 1, label %93
  ]

54:                                               ; preds = %52
  %55 = load ptr, ptr %3, align 8
  %56 = getelementptr inbounds nuw %struct.SN_env, ptr %55, i32 0, i32 7
  %57 = load ptr, ptr %56, align 8
  %58 = getelementptr inbounds i32, ptr %57, i64 0
  store i32 0, ptr %58, align 4
  %59 = load ptr, ptr %3, align 8
  %60 = getelementptr inbounds nuw %struct.SN_env, ptr %59, i32 0, i32 1
  %61 = load i32, ptr %60, align 8
  %62 = load ptr, ptr %3, align 8
  %63 = getelementptr inbounds nuw %struct.SN_env, ptr %62, i32 0, i32 5
  store i32 %61, ptr %63, align 8
  %64 = load ptr, ptr %3, align 8
  %65 = getelementptr inbounds nuw %struct.SN_env, ptr %64, i32 0, i32 1
  %66 = load i32, ptr %65, align 8
  %67 = load ptr, ptr %3, align 8
  %68 = getelementptr inbounds nuw %struct.SN_env, ptr %67, i32 0, i32 4
  store i32 %66, ptr %68, align 4
  %69 = load ptr, ptr %3, align 8
  %70 = call i32 @eq_s_b(ptr noundef %69, i32 noundef 4, ptr noundef @s_88)
  %71 = icmp ne i32 %70, 0
  br i1 %71, label %73, label %72

72:                                               ; preds = %54
  store i32 0, ptr %2, align 4
  br label %93

73:                                               ; preds = %54
  %74 = load ptr, ptr %3, align 8
  %75 = getelementptr inbounds nuw %struct.SN_env, ptr %74, i32 0, i32 1
  %76 = load i32, ptr %75, align 8
  %77 = load ptr, ptr %3, align 8
  %78 = getelementptr inbounds nuw %struct.SN_env, ptr %77, i32 0, i32 3
  %79 = load i32, ptr %78, align 8
  %80 = icmp sgt i32 %76, %79
  br i1 %80, label %81, label %82

81:                                               ; preds = %73
  store i32 0, ptr %2, align 4
  br label %93

82:                                               ; preds = %73
  call void @llvm.lifetime.start.p0(i64 4, ptr %6) #3
  %83 = load ptr, ptr %3, align 8
  %84 = call i32 @slice_from_s(ptr noundef %83, i32 noundef 10, ptr noundef @s_89)
  store i32 %84, ptr %6, align 4
  %85 = load i32, ptr %6, align 4
  %86 = icmp slt i32 %85, 0
  br i1 %86, label %87, label %89

87:                                               ; preds = %82
  %88 = load i32, ptr %6, align 4
  store i32 %88, ptr %2, align 4
  store i32 1, ptr %5, align 4
  br label %90

89:                                               ; preds = %82
  store i32 0, ptr %5, align 4
  br label %90

90:                                               ; preds = %89, %87
  call void @llvm.lifetime.end.p0(i64 4, ptr %6) #3
  %91 = load i32, ptr %5, align 4
  switch i32 %91, label %95 [
    i32 0, label %92
    i32 1, label %93
  ]

92:                                               ; preds = %90
  store i32 1, ptr %2, align 4
  br label %93

93:                                               ; preds = %92, %90, %81, %72, %52, %38, %33
  %94 = load i32, ptr %2, align 4
  ret i32 %94

95:                                               ; preds = %90, %52
  unreachable
}